target datalayout = "e-m:e-p270:32:32-p271:32:32-p272:64:64-i64:64-i128:128-f80:128-n8:16:32:64-S128"
target triple = "x86_64-pc-linux-gnu"

%struct.AVChannelLayout = type { i32, i32, %union.anon.1, ptr }
%union.anon.1 = type { i64 }
%struct.AVFilterFormatsConfig = type { ptr, ptr, ptr, ptr, ptr }
%struct.AVFilterLink = type { ptr, ptr, ptr, ptr, i32, i32, i32, i32, %struct.AVRational, i32, i32, i32, %struct.AVChannelLayout, %struct.AVRational, ptr, i32, %struct.AVFilterFormatsConfig, %struct.AVFilterFormatsConfig }
%struct.AVRational = type { i32, i32 }
%struct.AVFilterContext = type { ptr, ptr, ptr, ptr, ptr, i32, ptr, ptr, i32, ptr, ptr, i32, i32, ptr, ptr, ptr, ptr, i32, ptr, i32, i32 }
%struct.AVFrame = type { [8 x ptr], [8 x i32], ptr, i32, i32, i32, i32, i32, %struct.AVRational, i64, i64, %struct.AVRational, i32, ptr, i32, i32, [8 x ptr], ptr, i32, ptr, i32, i32, i32, i32, i32, i32, i32, i64, ptr, i32, ptr, ptr, i64, i64, i64, i64, ptr, %struct.AVChannelLayout, i64 }
%struct.AudioVirtualBassContext = type { ptr, double, double, [3 x double], [3 x double], [2 x double] }

; Function Attrs: nounwind uwtable
define internal double @vb_fun(double noundef %0) #0 {
  %2 = alloca double, align 8
  %3 = alloca double, align 8
  store double %0, ptr %2, align 8, !tbaa !53
  call void @llvm.lifetime.start.p0(i64 8, ptr %3) #5
  %4 = load double, ptr %2, align 8, !tbaa !53
  %5 = fmul nsz double 9.000000e-01, %4
  %6 = call nsz double @llvm.atan.f64(double %5)
  %7 = load double, ptr %2, align 8, !tbaa !53
  %8 = fmul nsz double 9.000000e-01, %7
  %9 = load double, ptr %2, align 8, !tbaa !53
  %10 = fmul nsz double 9.000000e-01, %9
  %11 = fneg nsz double %8
  %12 = call nsz double @llvm.fmuladd.f64(double %11, double %10, double 1.000000e+00)
  %13 = call nsz double @llvm.sqrt.f64(double %12)
  %14 = fmul nsz double 2.500000e+00, %13
  %15 = call nsz double @llvm.fmuladd.f64(double 2.500000e+00, double %6, double %14)
  %16 = fsub nsz double %15, 2.500000e+00
  store double %16, ptr %3, align 8, !tbaa !53
  %17 = load double, ptr %3, align 8, !tbaa !53
  %18 = fcmp nsz olt double %17, 0.000000e+00
  br i1 %18, label %19, label %22

19:                                               ; preds = %1
  %20 = load double, ptr %3, align 8, !tbaa !53
  %21 = call nsz double @llvm.sin.f64(double %20)
  br label %24

22:                                               ; preds = %1
  %23 = load double, ptr %3, align 8, !tbaa !53
  br label %24

24:                                               ; preds = %22, %19
  %25 = phi nsz double [ %21, %19 ], [ %23, %22 ]
  call void @llvm.lifetime.end.p0(i64 8, ptr %3) #5
  ret double %25
}

; Function Attrs: nounwind uwtable
define internal void @vb_stereo(ptr noundef %0, ptr noundef %1, ptr noundef %2) #0 {
  %4 = alloca ptr, align 8
  %5 = alloca ptr, align 8
  %6 = alloca ptr, align 8
  %7 = alloca ptr, align 8
  %8 = alloca ptr, align 8
  %9 = alloca ptr, align 8
  %10 = alloca ptr, align 8
  %11 = alloca ptr, align 8
  %12 = alloca ptr, align 8
  %13 = alloca double, align 8
  %14 = alloca double, align 8
  %15 = alloca double, align 8
  %16 = alloca double, align 8
  %17 = alloca double, align 8
  %18 = alloca double, align 8
  %19 = alloca double, align 8
  %20 = alloca double, align 8
  %21 = alloca double, align 8
  %22 = alloca i32, align 4
  %23 = alloca double, align 8
  %24 = alloca double, align 8
  %25 = alloca double, align 8
  %26 = alloca double, align 8
  %27 = alloca double, align 8
  %28 = alloca double, align 8
  %29 = alloca double, align 8
  store ptr %0, ptr %4, align 8, !tbaa !4
  store ptr %1, ptr %5, align 8, !tbaa !25
  store ptr %2, ptr %6, align 8, !tbaa !25
  call void @llvm.lifetime.start.p0(i64 8, ptr %7) #5
  %30 = load ptr, ptr %4, align 8, !tbaa !4
  %31 = getelementptr inbounds nuw %struct.AVFilterContext, ptr %30, i32 0, i32 9
  %32 = load ptr, ptr %31, align 8, !tbaa !50
  store ptr %32, ptr %7, align 8, !tbaa !51
  call void @llvm.lifetime.start.p0(i64 8, ptr %8) #5
  %33 = load ptr, ptr %6, align 8, !tbaa !25
  %34 = getelementptr inbounds nuw %struct.AVFrame, ptr %33, i32 0, i32 2
  %35 = load ptr, ptr %34, align 8, !tbaa !58
  %36 = getelementptr inbounds ptr, ptr %35, i64 0
  %37 = load ptr, ptr %36, align 8, !tbaa !59
  store ptr %37, ptr %8, align 8, !tbaa !60
  call void @llvm.lifetime.start.p0(i64 8, ptr %9) #5
  %38 = load ptr, ptr %6, align 8, !tbaa !25
  %39 = getelementptr inbounds nuw %struct.AVFrame, ptr %38, i32 0, i32 2
  %40 = load ptr, ptr %39, align 8, !tbaa !58
  %41 = getelementptr inbounds ptr, ptr %40, i64 1
  %42 = load ptr, ptr %41, align 8, !tbaa !59
  store ptr %42, ptr %9, align 8, !tbaa !60
  call void @llvm.lifetime.start.p0(i64 8, ptr %10) #5
  %43 = load ptr, ptr %5, align 8, !tbaa !25
  %44 = getelementptr inbounds nuw %struct.AVFrame, ptr %43, i32 0, i32 2
  %45 = load ptr, ptr %44, align 8, !tbaa !58
  %46 = getelementptr inbounds ptr, ptr %45, i64 0
  %47 = load ptr, ptr %46, align 8, !tbaa !59
  store ptr %47, ptr %10, align 8, !tbaa !60
  call void @llvm.lifetime.start.p0(i64 8, ptr %11) #5
  %48 = load ptr, ptr %5, align 8, !tbaa !25
  %49 = getelementptr inbounds nuw %struct.AVFrame, ptr %48, i32 0, i32 2
  %50 = load ptr, ptr %49, align 8, !tbaa !58
  %51 = getelementptr inbounds ptr, ptr %50, i64 1
  %52 = load ptr, ptr %51, align 8, !tbaa !59
  store ptr %52, ptr %11, align 8, !tbaa !60
  call void @llvm.lifetime.start.p0(i64 8, ptr %12) #5
  %53 = load ptr, ptr %5, align 8, !tbaa !25
  %54 = getelementptr inbounds nuw %struct.AVFrame, ptr %53, i32 0, i32 2
  %55 = load ptr, ptr %54, align 8, !tbaa !58
  %56 = getelementptr inbounds ptr, ptr %55, i64 2
  %57 = load ptr, ptr %56, align 8, !tbaa !59
  store ptr %57, ptr %12, align 8, !tbaa !60
  call void @llvm.lifetime.start.p0(i64 8, ptr %13) #5
  %58 = load ptr, ptr %7, align 8, !tbaa !51
  %59 = getelementptr inbounds nuw %struct.AudioVirtualBassContext, ptr %58, i32 0, i32 2
  %60 = load double, ptr %59, align 8, !tbaa !61
  %61 = fdiv nsz double 0x400921FB54442D18, %60
  store double %61, ptr %13, align 8, !tbaa !53
  call void @llvm.lifetime.start.p0(i64 8, ptr %14) #5
  %62 = load ptr, ptr %7, align 8, !tbaa !51
  %63 = getelementptr inbounds nuw %struct.AudioVirtualBassContext, ptr %62, i32 0, i32 3
  %64 = getelementptr inbounds [3 x double], ptr %63, i64 0, i64 0
  %65 = load double, ptr %64, align 8, !tbaa !53
  store double %65, ptr %14, align 8, !tbaa !53
  call void @llvm.lifetime.start.p0(i64 8, ptr %15) #5
  %66 = load ptr, ptr %7, align 8, !tbaa !51
  %67 = getelementptr inbounds nuw %struct.AudioVirtualBassContext, ptr %66, i32 0, i32 3
  %68 = getelementptr inbounds [3 x double], ptr %67, i64 0, i64 1
  %69 = load double, ptr %68, align 8, !tbaa !53
  store double %69, ptr %15, align 8, !tbaa !53
  call void @llvm.lifetime.start.p0(i64 8, ptr %16) #5
  %70 = load ptr, ptr %7, align 8, !tbaa !51
  %71 = getelementptr inbounds nuw %struct.AudioVirtualBassContext, ptr %70, i32 0, i32 3
  %72 = getelementptr inbounds [3 x double], ptr %71, i64 0, i64 2
  %73 = load double, ptr %72, align 8, !tbaa !53
  store double %73, ptr %16, align 8, !tbaa !53
  call void @llvm.lifetime.start.p0(i64 8, ptr %17) #5
  %74 = load ptr, ptr %7, align 8, !tbaa !51
  %75 = getelementptr inbounds nuw %struct.AudioVirtualBassContext, ptr %74, i32 0, i32 4
  %76 = getelementptr inbounds [3 x double], ptr %75, i64 0, i64 0
  %77 = load double, ptr %76, align 8, !tbaa !53
  store double %77, ptr %17, align 8, !tbaa !53
  call void @llvm.lifetime.start.p0(i64 8, ptr %18) #5
  %78 = load ptr, ptr %7, align 8, !tbaa !51
  %79 = getelementptr inbounds nuw %struct.AudioVirtualBassContext, ptr %78, i32 0, i32 4
  %80 = getelementptr inbounds [3 x double], ptr %79, i64 0, i64 1
  %81 = load double, ptr %80, align 8, !tbaa !53
  store double %81, ptr %18, align 8, !tbaa !53
  call void @llvm.lifetime.start.p0(i64 8, ptr %19) #5
  %82 = load ptr, ptr %7, align 8, !tbaa !51
  %83 = getelementptr inbounds nuw %struct.AudioVirtualBassContext, ptr %82, i32 0, i32 4
  %84 = getelementptr inbounds [3 x double], ptr %83, i64 0, i64 2
  %85 = load double, ptr %84, align 8, !tbaa !53
  store double %85, ptr %19, align 8, !tbaa !53
  call void @llvm.lifetime.start.p0(i64 8, ptr %20) #5
  %86 = load ptr, ptr %7, align 8, !tbaa !51
  %87 = getelementptr inbounds nuw %struct.AudioVirtualBassContext, ptr %86, i32 0, i32 5
  %88 = getelementptr inbounds [2 x double], ptr %87, i64 0, i64 0
  %89 = load double, ptr %88, align 8, !tbaa !53
  store double %89, ptr %20, align 8, !tbaa !53
  call void @llvm.lifetime.start.p0(i64 8, ptr %21) #5
  %90 = load ptr, ptr %7, align 8, !tbaa !51
  %91 = getelementptr inbounds nuw %struct.AudioVirtualBassContext, ptr %90, i32 0, i32 5
  %92 = getelementptr inbounds [2 x double], ptr %91, i64 0, i64 1
  %93 = load double, ptr %92, align 8, !tbaa !53
  store double %93, ptr %21, align 8, !tbaa !53
  %94 = load ptr, ptr %10, align 8, !tbaa !60
  %95 = load ptr, ptr %8, align 8, !tbaa !60
  %96 = load ptr, ptr %6, align 8, !tbaa !25
  %97 = getelementptr inbounds nuw %struct.AVFrame, ptr %96, i32 0, i32 5
  %98 = load i32, ptr %97, align 8, !tbaa !44
  %99 = sext i32 %98 to i64
  %100 = mul i64 %99, 8
  call void @llvm.memcpy.p0.p0.i64(ptr align 8 %94, ptr align 8 %95, i64 %100, i1 false)
  %101 = load ptr, ptr %11, align 8, !tbaa !60
  %102 = load ptr, ptr %9, align 8, !tbaa !60
  %103 = load ptr, ptr %6, align 8, !tbaa !25
  %104 = getelementptr inbounds nuw %struct.AVFrame, ptr %103, i32 0, i32 5
  %105 = load i32, ptr %104, align 8, !tbaa !44
  %106 = sext i32 %105 to i64
  %107 = mul i64 %106, 8
  call void @llvm.memcpy.p0.p0.i64(ptr align 8 %101, ptr align 8 %102, i64 %107, i1 false)
  call void @llvm.lifetime.start.p0(i64 4, ptr %22) #5
  store i32 0, ptr %22, align 4, !tbaa !14
  br label %108

108:                                              ; preds = %172, %3
  %109 = load i32, ptr %22, align 4, !tbaa !14
  %110 = load ptr, ptr %6, align 8, !tbaa !25
  %111 = getelementptr inbounds nuw %struct.AVFrame, ptr %110, i32 0, i32 5
  %112 = load i32, ptr %111, align 8, !tbaa !44
  %113 = icmp slt i32 %109, %112
  br i1 %113, label %115, label %114

114:                                              ; preds = %108
  call void @llvm.lifetime.end.p0(i64 4, ptr %22) #5
  br label %175

115:                                              ; preds = %108
  call void @llvm.lifetime.start.p0(i64 8, ptr %23) #5
  %116 = load ptr, ptr %8, align 8, !tbaa !60
  %117 = load i32, ptr %22, align 4, !tbaa !14
  %118 = sext i32 %117 to i64
  %119 = getelementptr inbounds double, ptr %116, i64 %118
  %120 = load double, ptr %119, align 8, !tbaa !53
  %121 = load ptr, ptr %9, align 8, !tbaa !60
  %122 = load i32, ptr %22, align 4, !tbaa !14
  %123 = sext i32 %122 to i64
  %124 = getelementptr inbounds double, ptr %121, i64 %123
  %125 = load double, ptr %124, align 8, !tbaa !53
  %126 = fadd nsz double %120, %125
  %127 = fmul nsz double %126, 5.000000e-01
  store double %127, ptr %23, align 8, !tbaa !53
  call void @llvm.lifetime.start.p0(i64 8, ptr %24) #5
  %128 = load double, ptr %23, align 8, !tbaa !53
  store double %128, ptr %24, align 8, !tbaa !53
  call void @llvm.lifetime.start.p0(i64 8, ptr %25) #5
  %129 = load double, ptr %24, align 8, !tbaa !53
  %130 = load double, ptr %21, align 8, !tbaa !53
  %131 = fsub nsz double %129, %130
  store double %131, ptr %25, align 8, !tbaa !53
  call void @llvm.lifetime.start.p0(i64 8, ptr %26) #5
  %132 = load double, ptr %14, align 8, !tbaa !53
  %133 = load double, ptr %20, align 8, !tbaa !53
  %134 = load double, ptr %15, align 8, !tbaa !53
  %135 = load double, ptr %25, align 8, !tbaa !53
  %136 = fmul nsz double %134, %135
  %137 = call nsz double @llvm.fmuladd.f64(double %132, double %133, double %136)
  store double %137, ptr %26, align 8, !tbaa !53
  call void @llvm.lifetime.start.p0(i64 8, ptr %27) #5
  %138 = load double, ptr %21, align 8, !tbaa !53
  %139 = load double, ptr %15, align 8, !tbaa !53
  %140 = load double, ptr %20, align 8, !tbaa !53
  %141 = call nsz double @llvm.fmuladd.f64(double %139, double %140, double %138)
  %142 = load double, ptr %16, align 8, !tbaa !53
  %143 = load double, ptr %25, align 8, !tbaa !53
  %144 = call nsz double @llvm.fmuladd.f64(double %142, double %143, double %141)
  store double %144, ptr %27, align 8, !tbaa !53
  call void @llvm.lifetime.start.p0(i64 8, ptr %28) #5
  call void @llvm.lifetime.start.p0(i64 8, ptr %29) #5
  %145 = load double, ptr %26, align 8, !tbaa !53
  %146 = load double, ptr %20, align 8, !tbaa !53
  %147 = fneg nsz double %146
  %148 = call nsz double @llvm.fmuladd.f64(double 2.000000e+00, double %145, double %147)
  store double %148, ptr %20, align 8, !tbaa !53
  %149 = load double, ptr %27, align 8, !tbaa !53
  %150 = load double, ptr %21, align 8, !tbaa !53
  %151 = fneg nsz double %150
  %152 = call nsz double @llvm.fmuladd.f64(double 2.000000e+00, double %149, double %151)
  store double %152, ptr %21, align 8, !tbaa !53
  %153 = load double, ptr %17, align 8, !tbaa !53
  %154 = load double, ptr %24, align 8, !tbaa !53
  %155 = load double, ptr %18, align 8, !tbaa !53
  %156 = load double, ptr %26, align 8, !tbaa !53
  %157 = fmul nsz double %155, %156
  %158 = call nsz double @llvm.fmuladd.f64(double %153, double %154, double %157)
  %159 = load double, ptr %19, align 8, !tbaa !53
  %160 = load double, ptr %27, align 8, !tbaa !53
  %161 = call nsz double @llvm.fmuladd.f64(double %159, double %160, double %158)
  store double %161, ptr %28, align 8, !tbaa !53
  %162 = load double, ptr %28, align 8, !tbaa !53
  %163 = call nsz double @vb_fun(double noundef %162)
  %164 = load double, ptr %13, align 8, !tbaa !53
  %165 = fmul nsz double %163, %164
  %166 = call nsz double @llvm.sin.f64(double %165)
  store double %166, ptr %29, align 8, !tbaa !53
  %167 = load double, ptr %29, align 8, !tbaa !53
  %168 = load ptr, ptr %12, align 8, !tbaa !60
  %169 = load i32, ptr %22, align 4, !tbaa !14
  %170 = sext i32 %169 to i64
  %171 = getelementptr inbounds double, ptr %168, i64 %170
  store double %167, ptr %171, align 8, !tbaa !53
  call void @llvm.lifetime.end.p0(i64 8, ptr %29) #5
  call void @llvm.lifetime.end.p0(i64 8, ptr %28) #5
  call void @llvm.lifetime.end.p0(i64 8, ptr %27) #5
  call void @llvm.lifetime.end.p0(i64 8, ptr %26) #5
  call void @llvm.lifetime.end.p0(i64 8, ptr %25) #5
  call void @llvm.lifetime.end.p0(i64 8, ptr %24) #5
  call void @llvm.lifetime.end.p0(i64 8, ptr %23) #5
  br label %172

172:                                              ; preds = %115
  %173 = load i32, ptr %22, align 4, !tbaa !14
  %174 = add nsw i32 %173, 1
  store i32 %174, ptr %22, align 4, !tbaa !14
  br label %108, !llvm.loop !62

175:                                              ; preds = %114
  %176 = load double, ptr %20, align 8, !tbaa !53
  %177 = load ptr, ptr %7, align 8, !tbaa !51
  %178 = getelementptr inbounds nuw %struct.AudioVirtualBassContext, ptr %177, i32 0, i32 5
  %179 = getelementptr inbounds [2 x double], ptr %178, i64 0, i64 0
  store double %176, ptr %179, align 8, !tbaa !53
  %180 = load double, ptr %21, align 8, !tbaa !53
  %181 = load ptr, ptr %7, align 8, !tbaa !51
  %182 = getelementptr inbounds nuw %struct.AudioVirtualBassContext, ptr %181, i32 0, i32 5
  %183 = getelementptr inbounds [2 x double], ptr %182, i64 0, i64 1
  store double %180, ptr %183, align 8, !tbaa !53
  call void @llvm.lifetime.end.p0(i64 8, ptr %21) #5
  call void @llvm.lifetime.end.p0(i64 8, ptr %20) #5
  call void @llvm.lifetime.end.p0(i64 8, ptr %19) #5
  call void @llvm.lifetime.end.p0(i64 8, ptr %18) #5
  call void @llvm.lifetime.end.p0(i64 8, ptr %17) #5
  call void @llvm.lifetime.end.p0(i64 8, ptr %16) #5
  call void @llvm.lifetime.end.p0(i64 8, ptr %15) #5
  call void @llvm.lifetime.end.p0(i64 8, ptr %14) #5
  call void @llvm.lifetime.end.p0(i64 8, ptr %13) #5
  call void @llvm.lifetime.end.p0(i64 8, ptr %12) #5
  call void @llvm.lifetime.end.p0(i64 8, ptr %11) #5
  call void @llvm.lifetime.end.p0(i64 8, ptr %10) #5
  call void @llvm.lifetime.end.p0(i64 8, ptr %9) #5
  call void @llvm.lifetime.end.p0(i64 8, ptr %8) #5
  call void @llvm.lifetime.end.p0(i64 8, ptr %7) #5
  ret void
}

; Function Attrs: nounwind uwtable
define internal i32 @filter_frame(ptr noundef %0, ptr noundef %1) #0 {
  %3 = alloca i32, align 4
  %4 = alloca ptr, align 8
  %5 = alloca ptr, align 8
  %6 = alloca ptr, align 8
  %7 = alloca ptr, align 8
  %8 = alloca ptr, align 8
  %9 = alloca i32, align 4
  store ptr %0, ptr %4, align 8, !tbaa !23
  store ptr %1, ptr %5, align 8, !tbaa !25
  call void @llvm.lifetime.start.p0(i64 8, ptr %6) #5
  %10 = load ptr, ptr %4, align 8, !tbaa !23
  %11 = getelementptr inbounds nuw %struct.AVFilterLink, ptr %10, i32 0, i32 2
  %12 = load ptr, ptr %11, align 8, !tbaa !27
  store ptr %12, ptr %6, align 8, !tbaa !4
  call void @llvm.lifetime.start.p0(i64 8, ptr %7) #5
  %13 = load ptr, ptr %6, align 8, !tbaa !4
  %14 = getelementptr inbounds nuw %struct.AVFilterContext, ptr %13, i32 0, i32 7
  %15 = load ptr, ptr %14, align 8, !tbaa !34
  %16 = getelementptr inbounds ptr, ptr %15, i64 0
  %17 = load ptr, ptr %16, align 8, !tbaa !23
  store ptr %17, ptr %7, align 8, !tbaa !23
  call void @llvm.lifetime.start.p0(i64 8, ptr %8) #5
  %18 = load ptr, ptr %7, align 8, !tbaa !23
  %19 = load ptr, ptr %5, align 8, !tbaa !25
  %20 = getelementptr inbounds nuw %struct.AVFrame, ptr %19, i32 0, i32 5
  %21 = load i32, ptr %20, align 8, !tbaa !44
  %22 = call ptr @ff_get_audio_buffer(ptr noundef %18, i32 noundef %21)
  store ptr %22, ptr %8, align 8, !tbaa !25
  %23 = load ptr, ptr %8, align 8, !tbaa !25
  %24 = icmp ne ptr %23, null
  br i1 %24, label %26, label %25

25:                                               ; preds = %2
  call void @av_frame_free(ptr noundef %5)
  store i32 -12, ptr %3, align 4
  store i32 1, ptr %9, align 4
  br label %36

26:                                               ; preds = %2
  %27 = load ptr, ptr %8, align 8, !tbaa !25
  %28 = load ptr, ptr %5, align 8, !tbaa !25
  %29 = call i32 @av_frame_copy_props(ptr noundef %27, ptr noundef %28)
  %30 = load ptr, ptr %6, align 8, !tbaa !4
  %31 = load ptr, ptr %8, align 8, !tbaa !25
  %32 = load ptr, ptr %5, align 8, !tbaa !25
  call void @vb_stereo(ptr noundef %30, ptr noundef %31, ptr noundef %32)
  call void @av_frame_free(ptr noundef %5)
  %33 = load ptr, ptr %7, align 8, !tbaa !23
  %34 = load ptr, ptr %8, align 8, !tbaa !25
  %35 = call i32 @ff_filter_frame(ptr noundef %33, ptr noundef %34)
  store i32 %35, ptr %3, align 4
  store i32 1, ptr %9, align 4
  br label %36

36:                                               ; preds = %26, %25
  call void @llvm.lifetime.end.p0(i64 8, ptr %8) #5
  call void @llvm.lifetime.end.p0(i64 8, ptr %7) #5
  call void @llvm.lifetime.end.p0(i64 8, ptr %6) #5
  %37 = load i32, ptr %3, align 4
  ret i32 %37
}