; Function Attrs: nounwind uwtable
define internal i32 @filter_frame(ptr noundef readonly captures(none) %0, ptr noundef %1) #0 {
  %3 = alloca ptr, align 8
  store ptr %1, ptr %3, align 8, !tbaa !17
  %4 = getelementptr inbounds nuw i8, ptr %0, i64 16
  %5 = load ptr, ptr %4, align 8, !tbaa !19
  %6 = getelementptr inbounds nuw i8, ptr %5, i64 56
  %7 = load ptr, ptr %6, align 8, !tbaa !28
  %8 = load ptr, ptr %7, align 8, !tbaa !38
  %9 = getelementptr inbounds nuw i8, ptr %1, i64 112
  %10 = load i32, ptr %9, align 8, !tbaa !40
  %11 = tail call ptr @ff_get_audio_buffer(ptr noundef %8, i32 noundef %10) #8
  %.not = icmp eq ptr %11, null
  br i1 %.not, label %12, label %13

12:                                               ; preds = %2
  call void @av_frame_free(ptr noundef nonnull %3) #8
  br label %87

13:                                               ; preds = %2
  %14 = tail call i32 @av_frame_copy_props(ptr noundef nonnull %11, ptr noundef nonnull %1) #8
  %15 = getelementptr i8, ptr %5, i64 72
  %.val = load ptr, ptr %15, align 8, !tbaa !46
  %16 = getelementptr i8, ptr %11, i64 96
  %.val10 = load ptr, ptr %16, align 8, !tbaa !47
  %17 = getelementptr inbounds nuw i8, ptr %1, i64 96
  %18 = load ptr, ptr %17, align 8, !tbaa !47
  %19 = load ptr, ptr %18, align 8, !tbaa !48
  %20 = getelementptr inbounds nuw i8, ptr %18, i64 8
  %21 = load ptr, ptr %20, align 8, !tbaa !48
  %22 = load ptr, ptr %.val10, align 8, !tbaa !48
  %23 = getelementptr inbounds nuw i8, ptr %.val10, i64 8
  %24 = load ptr, ptr %23, align 8, !tbaa !48
  %25 = getelementptr inbounds nuw i8, ptr %.val10, i64 16
  %26 = load ptr, ptr %25, align 8, !tbaa !48
  %27 = getelementptr inbounds nuw i8, ptr %.val, i64 16
  %28 = load double, ptr %27, align 8, !tbaa !49
  %29 = fdiv nsz double 0x400921FB54442D18, %28
  %30 = getelementptr inbounds nuw i8, ptr %.val, i64 24
  %31 = load double, ptr %30, align 8, !tbaa !52
  %32 = getelementptr inbounds nuw i8, ptr %.val, i64 32
  %33 = load double, ptr %32, align 8, !tbaa !52
  %34 = getelementptr inbounds nuw i8, ptr %.val, i64 40
  %35 = load double, ptr %34, align 8, !tbaa !52
  %36 = getelementptr inbounds nuw i8, ptr %.val, i64 48
  %37 = load double, ptr %36, align 8, !tbaa !52
  %38 = getelementptr inbounds nuw i8, ptr %.val, i64 56
  %39 = load double, ptr %38, align 8, !tbaa !52
  %40 = getelementptr inbounds nuw i8, ptr %.val, i64 64
  %41 = load double, ptr %40, align 8, !tbaa !52
  %42 = getelementptr inbounds nuw i8, ptr %.val, i64 72
  %43 = load double, ptr %42, align 8, !tbaa !52
  %44 = getelementptr inbounds nuw i8, ptr %.val, i64 80
  %45 = load double, ptr %44, align 8, !tbaa !52
  %46 = load i32, ptr %9, align 8, !tbaa !40
  %47 = sext i32 %46 to i64
  %48 = shl nsw i64 %47, 3
  tail call void @llvm.memcpy.p0.p0.i64(ptr align 8 %22, ptr align 8 %19, i64 %48, i1 false)
  %49 = load i32, ptr %9, align 8, !tbaa !40
  %50 = sext i32 %49 to i64
  %51 = shl nsw i64 %50, 3
  tail call void @llvm.memcpy.p0.p0.i64(ptr align 8 %24, ptr align 8 %21, i64 %51, i1 false)
  %52 = load i32, ptr %9, align 8, !tbaa !40
  %53 = icmp sgt i32 %52, 0
  br i1 %53, label %.lr.ph.preheader.i, label %vb_stereo.exit

.lr.ph.preheader.i:                               ; preds = %13
  %wide.trip.count.i = zext nneg i32 %52 to i64
  br label %.lr.ph.i

.lr.ph.i:                                         ; preds = %.lr.ph.i, %.lr.ph.preheader.i
  %indvars.iv.i = phi i64 [ 0, %.lr.ph.preheader.i ], [ %indvars.iv.next.i, %.lr.ph.i ]
  %.03.i = phi double [ %43, %.lr.ph.preheader.i ], [ %66, %.lr.ph.i ]
  %.0582.i = phi double [ %45, %.lr.ph.preheader.i ], [ %68, %.lr.ph.i ]
  %54 = getelementptr inbounds nuw double, ptr %19, i64 %indvars.iv.i
  %55 = load double, ptr %54, align 8, !tbaa !52
  %56 = getelementptr inbounds nuw double, ptr %21, i64 %indvars.iv.i
  %57 = load double, ptr %56, align 8, !tbaa !52
  %58 = fadd nsz double %55, %57
  %59 = fmul nsz double %58, 5.000000e-01
  %60 = fsub nsz double %59, %.0582.i
  %61 = fmul nsz double %33, %60
  %62 = tail call nsz double @llvm.fmuladd.f64(double %31, double %.03.i, double %61)
  %63 = tail call nsz double @llvm.fmuladd.f64(double %33, double %.03.i, double %.0582.i)
  %64 = tail call nsz double @llvm.fmuladd.f64(double %35, double %60, double %63)
  %65 = fneg nsz double %.03.i
  %66 = tail call nsz double @llvm.fmuladd.f64(double %62, double 2.000000e+00, double %65)
  %67 = fneg nsz double %.0582.i
  %68 = tail call nsz double @llvm.fmuladd.f64(double %64, double 2.000000e+00, double %67)
  %69 = fmul nsz double %39, %62
  %70 = tail call nsz double @llvm.fmuladd.f64(double %37, double %59, double %69)
  %71 = tail call nsz double @llvm.fmuladd.f64(double %41, double %64, double %70)
  %72 = fmul nsz double %71, 9.000000e-01
  %73 = tail call nsz double @llvm.atan.f64(double %72)
  %74 = fneg nsz double %72
  %75 = tail call nsz double @llvm.fmuladd.f64(double %74, double %72, double 1.000000e+00)
  %76 = tail call nsz double @llvm.sqrt.f64(double %75)
  %77 = fmul nsz double %76, 2.500000e+00
  %78 = tail call nsz double @llvm.fmuladd.f64(double %73, double 2.500000e+00, double %77)
  %79 = fadd nsz double %78, -2.500000e+00
  %80 = fcmp nsz olt double %79, 0.000000e+00
  %81 = tail call nsz double @llvm.sin.f64(double %79)
  %82 = select nsz i1 %80, double %81, double %79
  %83 = fmul nsz double %29, %82
  %84 = tail call nsz double @llvm.sin.f64(double %83)
  %85 = getelementptr inbounds nuw double, ptr %26, i64 %indvars.iv.i
  store double %84, ptr %85, align 8, !tbaa !52
  %indvars.iv.next.i = add nuw nsw i64 %indvars.iv.i, 1
  %exitcond.not.i = icmp eq i64 %indvars.iv.next.i, %wide.trip.count.i
  br i1 %exitcond.not.i, label %vb_stereo.exit, label %.lr.ph.i, !llvm.loop !53

vb_stereo.exit:                                   ; preds = %.lr.ph.i, %13
  %.058.lcssa.i = phi double [ %45, %13 ], [ %68, %.lr.ph.i ]
  %.0.lcssa.i = phi double [ %43, %13 ], [ %66, %.lr.ph.i ]
  store double %.0.lcssa.i, ptr %42, align 8, !tbaa !52
  store double %.058.lcssa.i, ptr %44, align 8, !tbaa !52
  call void @av_frame_free(ptr noundef nonnull %3) #8
  %86 = call i32 @ff_filter_frame(ptr noundef %8, ptr noundef nonnull %11) #8
  br label %87

87:                                               ; preds = %vb_stereo.exit, %12
  %.0 = phi i32 [ %86, %vb_stereo.exit ], [ -12, %12 ]
  ret i32 %.0
}